target datalayout = "e-m:e-p270:32:32-p271:32:32-p272:64:64-i64:64-i128:128-f80:128-n8:16:32:64-S128"
target triple = "x86_64-pc-linux-gnu"

%struct.curl_mimepart = type { ptr, ptr, i32, i32, ptr, ptr, ptr, ptr, ptr, ptr, ptr, ptr, ptr, ptr, ptr, i64, %struct.mime_state, ptr, %struct.mime_encoder_state, i64 }
%struct.mime_state = type { i32, ptr, i64 }
%struct.mime_encoder_state = type { i64, i64, i64, [256 x i8] }
%struct.curl_mime = type { ptr, ptr, ptr, [47 x i8], %struct.mime_state }

; Function Attrs: nounwind uwtable
define internal void @mime_unpause(ptr noundef %0) #0 {
  %2 = alloca ptr, align 8
  %3 = alloca ptr, align 8
  %4 = alloca ptr, align 8
  store ptr %0, ptr %2, align 8, !tbaa !4
  %5 = load ptr, ptr %2, align 8, !tbaa !4
  %6 = icmp ne ptr %5, null
  br i1 %6, label %7, label %42

7:                                                ; preds = %1
  %8 = load ptr, ptr %2, align 8, !tbaa !4
  %9 = getelementptr inbounds nuw %struct.curl_mimepart, ptr %8, i32 0, i32 19
  %10 = load i64, ptr %9, align 8, !tbaa !34
  %11 = icmp eq i64 %10, 268435457
  br i1 %11, label %12, label %15

12:                                               ; preds = %7
  %13 = load ptr, ptr %2, align 8, !tbaa !4
  %14 = getelementptr inbounds nuw %struct.curl_mimepart, ptr %13, i32 0, i32 19
  store i64 1, ptr %14, align 8, !tbaa !34
  br label %15

15:                                               ; preds = %12, %7
  %16 = load ptr, ptr %2, align 8, !tbaa !4
  %17 = getelementptr inbounds nuw %struct.curl_mimepart, ptr %16, i32 0, i32 2
  %18 = load i32, ptr %17, align 8, !tbaa !33
  %19 = icmp eq i32 %18, 4
  br i1 %19, label %20, label %41

20:                                               ; preds = %15
  call void @llvm.lifetime.start.p0(i64 8, ptr %3) #8
  %21 = load ptr, ptr %2, align 8, !tbaa !4
  %22 = getelementptr inbounds nuw %struct.curl_mimepart, ptr %21, i32 0, i32 8
  %23 = load ptr, ptr %22, align 8, !tbaa !27
  store ptr %23, ptr %3, align 8, !tbaa !36
  %24 = load ptr, ptr %3, align 8, !tbaa !36
  %25 = icmp ne ptr %24, null
  br i1 %25, label %26, label %40

26:                                               ; preds = %20
  call void @llvm.lifetime.start.p0(i64 8, ptr %4) #8
  %27 = load ptr, ptr %3, align 8, !tbaa !36
  %28 = getelementptr inbounds nuw %struct.curl_mime, ptr %27, i32 0, i32 1
  %29 = load ptr, ptr %28, align 8, !tbaa !37
  store ptr %29, ptr %4, align 8, !tbaa !4
  br label %30

30:                                               ; preds = %35, %26
  %31 = load ptr, ptr %4, align 8, !tbaa !4
  %32 = icmp ne ptr %31, null
  br i1 %32, label %33, label %39

33:                                               ; preds = %30
  %34 = load ptr, ptr %4, align 8, !tbaa !4
  call void @mime_unpause(ptr noundef %34)
  br label %35

35:                                               ; preds = %33
  %36 = load ptr, ptr %4, align 8, !tbaa !4
  %37 = getelementptr inbounds nuw %struct.curl_mimepart, ptr %36, i32 0, i32 1
  %38 = load ptr, ptr %37, align 8, !tbaa !39
  store ptr %38, ptr %4, align 8, !tbaa !4
  br label %30, !llvm.loop !183

39:                                               ; preds = %30
  call void @llvm.lifetime.end.p0(i64 8, ptr %4) #8
  br label %40

40:                                               ; preds = %39, %20
  call void @llvm.lifetime.end.p0(i64 8, ptr %3) #8
  br label %41

41:                                               ; preds = %40, %15
  br label %42

42:                                               ; preds = %41, %1
  ret void
}