; Function Attrs: nofree nosync nounwind memory(readwrite, inaccessiblemem: none) uwtable
define internal fastcc void @mime_unpause(ptr noundef %0) unnamed_addr #16 {
  %.not = icmp eq ptr %0, null
  br i1 %.not, label %.loopexit, label %2

2:                                                ; preds = %1
  %3 = getelementptr inbounds nuw i8, ptr %0, i64 432
  %4 = load i64, ptr %3, align 8, !tbaa !25
  %5 = icmp eq i64 %4, 268435457
  br i1 %5, label %6, label %7

6:                                                ; preds = %2
  store i64 1, ptr %3, align 8, !tbaa !25
  br label %7

7:                                                ; preds = %6, %2
  %8 = getelementptr inbounds nuw i8, ptr %0, i64 16
  %9 = load i32, ptr %8, align 8, !tbaa !23
  %10 = icmp eq i32 %9, 4
  br i1 %10, label %11, label %.loopexit

11:                                               ; preds = %7
  %12 = getelementptr inbounds nuw i8, ptr %0, i64 56
  %13 = load ptr, ptr %12, align 8, !tbaa !19
  %.not12 = icmp eq ptr %13, null
  br i1 %.not12, label %.loopexit, label %.preheader

.preheader:                                       ; preds = %11
  %.0.in14 = getelementptr inbounds nuw i8, ptr %13, i64 8
  %.015 = load ptr, ptr %.0.in14, align 8, !tbaa !44
  %.not1316 = icmp eq ptr %.015, null
  br i1 %.not1316, label %.loopexit, label %.lr.ph

.lr.ph:                                           ; preds = %.preheader, %.lr.ph
  %.017 = phi ptr [ %.0, %.lr.ph ], [ %.015, %.preheader ]
  tail call fastcc void @mime_unpause(ptr noundef nonnull %.017)
  %.0.in = getelementptr inbounds nuw i8, ptr %.017, i64 8
  %.0 = load ptr, ptr %.0.in, align 8, !tbaa !44
  %.not13 = icmp eq ptr %.0, null
  br i1 %.not13, label %.loopexit, label %.lr.ph, !llvm.loop !168

.loopexit:                                        ; preds = %.lr.ph, %.preheader, %11, %7, %1
  ret void
}